                              1 
                              2     .include "initial.asm"
                              1 
                              2 
                              3         .area   CODE1   (ABS)
   5300                       4         .org    0x5300
                              5 
   5300                       6 START:
                              7         ; init
   5300 31 FF FF      [10]    8         LD      SP,0xffff
   5303 3E 00         [ 7]    9         LD      A,0
   5305 0E E0         [ 7]   10         LD      C,0xE0
   5307 ED 79         [12]   11         OUT     (C),A
   5309 0E E4         [ 7]   12         LD      C,0xE4
   530B ED 79         [12]   13         OUT     (C),A
   530D 0E EC         [ 7]   14         LD      C,0xEC
   530F ED 79         [12]   15         OUT     (C),A
                             16 
                             17         ; cls
   5311 16 80         [ 7]   18         LD      D,0x80
   5313 21 00 3C      [10]   19         LD      HL,0x3c00
   5316 01 00 04      [10]   20         LD      BC,0x0400
   5319 72            [ 7]   21 CLR:    LD      (HL),D
   531A 23            [ 6]   22         INC     HL
   531B 0B            [ 6]   23         DEC     BC
   531C 78            [ 4]   24         LD      A,B
   531D B1            [ 4]   25         OR      C 
   531E C2 19 53      [10]   26         JP      NZ,CLR
                             27 
                             28         ; wait for end of vblank
   5321 DB FF         [11]   29 LOOP1:  IN      A,(0xff)
   5323 CB 77         [ 8]   30         BIT     6,A
   5325 C2 21 53      [10]   31         JP      NZ,LOOP1
                             32 
                             33         ; wait for start of vblank
   5328 DB FF         [11]   34 LOOP2:  IN      A,(0xff)
   532A CB 77         [ 8]   35         BIT     6,A
   532C CA 28 53      [10]   36         JP      Z,LOOP2
                             37 
                             38         ; draw initial frame
   532F CD 63 53      [17]   39         CALL    IFRAME
                             40  
                             41         ; wait for end of vblank
   5332 DB FF         [11]   42 LOOP3:  IN      A,(0xFF)
   5334 CB 77         [ 8]   43         BIT     6,A
   5336 C2 32 53      [10]   44         JP      NZ,LOOP3
                             45 
                             46         ; wait for start of vblank
   5339 DB FF         [11]   47 LOOP4:  IN      A,(0xFF)
   533B CB 77         [ 8]   48         BIT     6,A
   533D CA 39 53      [10]   49         JP      Z,LOOP4
                             50 
                             51         ; switch to left frame
   5340 0E FF         [ 7]   52         LD      C,0xFF
   5342 3E 02         [ 7]   53         LD      A,2
   5344 ED 79         [12]   54         OUT     (C),A
                             55 
                             56         ; draw left frame
   5346 CD 79 55      [17]   57         CALL    LFRAME
                             58 
                             59         ; wait for end of vblank
   5349 DB FF         [11]   60 LOOP5:  IN      A,(0xFF)
   534B CB 77         [ 8]   61         BIT     6,A
   534D C2 49 53      [10]   62         JP      NZ,LOOP5
                             63 
                             64         ; wait for start of vblank
   5350 DB FF         [11]   65 LOOP6:  IN      A,(0xFF)
   5352 CB 77         [ 8]   66         BIT     6,A
   5354 CA 50 53      [10]   67         JP      Z,LOOP6
                             68 
                             69         ; switch to right frame
   5357 0E FF         [ 7]   70         LD      C,0xFF
   5359 3E 01         [ 7]   71         LD      A,1
   535B ED 79         [12]   72         OUT     (C),A
                             73 
                             74         ; draw right frame
   535D CD 78 57      [17]   75         CALL    RFRAME
                             76 
                             77         ; loop!
   5360 C3 32 53      [10]   78         JP      LOOP3
                             79 
                             80 ;;;;;;;;;;;;;;;;;;;;;;;;;;;;;;;;;;
                             81 
                              3     .include "testcode.asm"
   5363                       1 IFRAME:
   5363 3E 52         [ 7]    2         LD      A,0x52
   5365 32 00 3C      [13]    3         LD      (0x3c00),A
   5368 3E B0         [ 7]    4         LD      A,0xb0
   536A 32 60 3C      [13]    5         LD      (0x3c60),A
   536D 32 61 3C      [13]    6         LD      (0x3c61),A
   5370 32 62 3C      [13]    7         LD      (0x3c62),A
   5373 32 63 3C      [13]    8         LD      (0x3c63),A
   5376 32 94 3C      [13]    9         LD      (0x3c94),A
   5379 32 95 3C      [13]   10         LD      (0x3c95),A
   537C 32 96 3C      [13]   11         LD      (0x3c96),A
   537F 32 97 3C      [13]   12         LD      (0x3c97),A
   5382 32 E9 3C      [13]   13         LD      (0x3ce9),A
   5385 32 1D 3D      [13]   14         LD      (0x3d1d),A
   5388 32 1E 3D      [13]   15         LD      (0x3d1e),A
   538B 32 1F 3D      [13]   16         LD      (0x3d1f),A
   538E 32 20 3D      [13]   17         LD      (0x3d20),A
   5391 32 52 3D      [13]   18         LD      (0x3d52),A
   5394 32 53 3D      [13]   19         LD      (0x3d53),A
   5397 32 54 3D      [13]   20         LD      (0x3d54),A
   539A 32 AA 3E      [13]   21         LD      (0x3eaa),A
   539D 32 AB 3E      [13]   22         LD      (0x3eab),A
   53A0 32 AC 3E      [13]   23         LD      (0x3eac),A
   53A3 32 DF 3E      [13]   24         LD      (0x3edf),A
   53A6 32 E0 3E      [13]   25         LD      (0x3ee0),A
   53A9 32 E1 3E      [13]   26         LD      (0x3ee1),A
   53AC 32 15 3F      [13]   27         LD      (0x3f15),A
   53AF 32 16 3F      [13]   28         LD      (0x3f16),A
   53B2 32 2C 3F      [13]   29         LD      (0x3f2c),A
   53B5 32 2D 3F      [13]   30         LD      (0x3f2d),A
   53B8 32 2E 3F      [13]   31         LD      (0x3f2e),A
   53BB 32 2F 3F      [13]   32         LD      (0x3f2f),A
   53BE 32 61 3F      [13]   33         LD      (0x3f61),A
   53C1 32 62 3F      [13]   34         LD      (0x3f62),A
   53C4 32 63 3F      [13]   35         LD      (0x3f63),A
   53C7 32 97 3F      [13]   36         LD      (0x3f97),A
   53CA 3E 8C         [ 7]   37         LD      A,0x8c
   53CC 32 64 3C      [13]   38         LD      (0x3c64),A
   53CF 32 65 3C      [13]   39         LD      (0x3c65),A
   53D2 32 66 3C      [13]   40         LD      (0x3c66),A
   53D5 32 67 3C      [13]   41         LD      (0x3c67),A
   53D8 32 98 3C      [13]   42         LD      (0x3c98),A
   53DB 32 99 3C      [13]   43         LD      (0x3c99),A
   53DE 32 9A 3C      [13]   44         LD      (0x3c9a),A
   53E1 32 9B 3C      [13]   45         LD      (0x3c9b),A
   53E4 32 CF 3C      [13]   46         LD      (0x3ccf),A
   53E7 32 21 3D      [13]   47         LD      (0x3d21),A
   53EA 32 22 3D      [13]   48         LD      (0x3d22),A
   53ED 32 23 3D      [13]   49         LD      (0x3d23),A
   53F0 32 56 3D      [13]   50         LD      (0x3d56),A
   53F3 32 57 3D      [13]   51         LD      (0x3d57),A
   53F6 32 58 3D      [13]   52         LD      (0x3d58),A
   53F9 32 AD 3E      [13]   53         LD      (0x3ead),A
   53FC 32 AE 3E      [13]   54         LD      (0x3eae),A
   53FF 32 E2 3E      [13]   55         LD      (0x3ee2),A
   5402 32 E3 3E      [13]   56         LD      (0x3ee3),A
   5405 32 E4 3E      [13]   57         LD      (0x3ee4),A
   5408 32 E5 3E      [13]   58         LD      (0x3ee5),A
   540B 32 17 3F      [13]   59         LD      (0x3f17),A
   540E 32 18 3F      [13]   60         LD      (0x3f18),A
   5411 32 19 3F      [13]   61         LD      (0x3f19),A
   5414 32 1A 3F      [13]   62         LD      (0x3f1a),A
   5417 32 30 3F      [13]   63         LD      (0x3f30),A
   541A 32 64 3F      [13]   64         LD      (0x3f64),A
   541D 32 65 3F      [13]   65         LD      (0x3f65),A
   5420 32 66 3F      [13]   66         LD      (0x3f66),A
   5423 32 67 3F      [13]   67         LD      (0x3f67),A
   5426 32 99 3F      [13]   68         LD      (0x3f99),A
   5429 32 9A 3F      [13]   69         LD      (0x3f9a),A
   542C 32 9B 3F      [13]   70         LD      (0x3f9b),A
   542F 3E 83         [ 7]   71         LD      A,0x83
   5431 32 68 3C      [13]   72         LD      (0x3c68),A
   5434 32 69 3C      [13]   73         LD      (0x3c69),A
   5437 32 9C 3C      [13]   74         LD      (0x3c9c),A
   543A 32 9D 3C      [13]   75         LD      (0x3c9d),A
   543D 32 9E 3C      [13]   76         LD      (0x3c9e),A
   5440 32 9F 3C      [13]   77         LD      (0x3c9f),A
   5443 32 D0 3C      [13]   78         LD      (0x3cd0),A
   5446 32 D1 3C      [13]   79         LD      (0x3cd1),A
   5449 32 D2 3C      [13]   80         LD      (0x3cd2),A
   544C 32 D3 3C      [13]   81         LD      (0x3cd3),A
   544F 32 25 3D      [13]   82         LD      (0x3d25),A
   5452 32 26 3D      [13]   83         LD      (0x3d26),A
   5455 32 27 3D      [13]   84         LD      (0x3d27),A
   5458 32 59 3D      [13]   85         LD      (0x3d59),A
   545B 32 5A 3D      [13]   86         LD      (0x3d5a),A
   545E 32 5B 3D      [13]   87         LD      (0x3d5b),A
   5461 32 5C 3D      [13]   88         LD      (0x3d5c),A
   5464 32 B1 3E      [13]   89         LD      (0x3eb1),A
   5467 32 E6 3E      [13]   90         LD      (0x3ee6),A
   546A 32 E7 3E      [13]   91         LD      (0x3ee7),A
   546D 32 E8 3E      [13]   92         LD      (0x3ee8),A
   5470 32 1B 3F      [13]   93         LD      (0x3f1b),A
   5473 32 1C 3F      [13]   94         LD      (0x3f1c),A
   5476 32 1D 3F      [13]   95         LD      (0x3f1d),A
   5479 32 68 3F      [13]   96         LD      (0x3f68),A
   547C 32 69 3F      [13]   97         LD      (0x3f69),A
   547F 32 6A 3F      [13]   98         LD      (0x3f6a),A
   5482 32 6B 3F      [13]   99         LD      (0x3f6b),A
   5485 32 9D 3F      [13]  100         LD      (0x3f9d),A
   5488 32 9E 3F      [13]  101         LD      (0x3f9e),A
   548B 32 9F 3F      [13]  102         LD      (0x3f9f),A
   548E 3E BD         [ 7]  103         LD      A,0xbd
   5490 32 6A 3C      [13]  104         LD      (0x3c6a),A
   5493 3E 95         [ 7]  105         LD      A,0x95
   5495 32 AA 3C      [13]  106         LD      (0x3caa),A
   5498 32 EA 3C      [13]  107         LD      (0x3cea),A
   549B 32 F2 3E      [13]  108         LD      (0x3ef2),A
   549E 3E A9         [ 7]  109         LD      A,0xa9
   54A0 32 AB 3C      [13]  110         LD      (0x3cab),A
   54A3 32 6B 3D      [13]  111         LD      (0x3d6b),A
   54A6 32 AC 3D      [13]  112         LD      (0x3dac),A
   54A9 32 11 3E      [13]  113         LD      (0x3e11),A
   54AC 32 55 3F      [13]  114         LD      (0x3f55),A
   54AF 3E A8         [ 7]  115         LD      A,0xa8
   54B1 32 CD 3C      [13]  116         LD      (0x3ccd),A
   54B4 3E 9C         [ 7]  117         LD      A,0x9c
   54B6 32 CE 3C      [13]  118         LD      (0x3cce),A
   54B9 32 B0 3E      [13]  119         LD      (0x3eb0),A
   54BC 3E A0         [ 7]  120         LD      A,0xa0
   54BE 32 E8 3C      [13]  121         LD      (0x3ce8),A
   54C1 32 51 3D      [13]  122         LD      (0x3d51),A
   54C4 32 A9 3E      [13]  123         LD      (0x3ea9),A
   54C7 32 DE 3E      [13]  124         LD      (0x3ede),A
   54CA 32 60 3F      [13]  125         LD      (0x3f60),A
   54CD 3E A5         [ 7]  126         LD      A,0xa5
   54CF 32 EC 3C      [13]  127         LD      (0x3cec),A
   54D2 32 2D 3D      [13]  128         LD      (0x3d2d),A
   54D5 32 6E 3D      [13]  129         LD      (0x3d6e),A
   54D8 32 ED 3D      [13]  130         LD      (0x3ded),A
   54DB 32 93 3E      [13]  131         LD      (0x3e93),A
   54DE 32 96 3F      [13]  132         LD      (0x3f96),A
   54E1 3E AD         [ 7]  133         LD      A,0xad
   54E3 32 0E 3D      [13]  134         LD      (0x3d0e),A
   54E6 32 52 3E      [13]  135         LD      (0x3e52),A
   54E9 3E 86         [ 7]  136         LD      A,0x86
   54EB 32 24 3D      [13]  137         LD      (0x3d24),A
   54EE 32 9C 3F      [13]  138         LD      (0x3f9c),A
   54F1 3E 81         [ 7]  139         LD      A,0x81
   54F3 32 28 3D      [13]  140         LD      (0x3d28),A
   54F6 32 91 3D      [13]  141         LD      (0x3d91),A
   54F9 32 E9 3E      [13]  142         LD      (0x3ee9),A
   54FC 32 1E 3F      [13]  143         LD      (0x3f1e),A
   54FF 32 A0 3F      [13]  144         LD      (0x3fa0),A
   5502 3E 8A         [ 7]  145         LD      A,0x8a
   5504 32 2A 3D      [13]  146         LD      (0x3d2a),A
   5507 32 D0 3D      [13]  147         LD      (0x3dd0),A
   550A 32 F0 3E      [13]  148         LD      (0x3ef0),A
   550D 32 14 3F      [13]  149         LD      (0x3f14),A
   5510 3E 90         [ 7]  150         LD      A,0x90
   5512 32 2B 3D      [13]  151         LD      (0x3d2b),A
   5515 32 D1 3D      [13]  152         LD      (0x3dd1),A
   5518 32 12 3E      [13]  153         LD      (0x3e12),A
   551B 32 F1 3E      [13]  154         LD      (0x3ef1),A
   551E 3E 82         [ 7]  155         LD      A,0x82
   5520 32 4E 3D      [13]  156         LD      (0x3d4e),A
   5523 32 8F 3D      [13]  157         LD      (0x3d8f),A
   5526 32 AE 3D      [13]  158         LD      (0x3dae),A
   5529 32 EF 3D      [13]  159         LD      (0x3def),A
   552C 32 2D 3E      [13]  160         LD      (0x3e2d),A
   552F 32 30 3E      [13]  161         LD      (0x3e30),A
   5532 32 6E 3E      [13]  162         LD      (0x3e6e),A
   5535 32 71 3E      [13]  163         LD      (0x3e71),A
   5538 32 92 3E      [13]  164         LD      (0x3e92),A
   553B 32 D3 3E      [13]  165         LD      (0x3ed3),A
   553E 3E B5         [ 7]  166         LD      A,0xb5
   5540 32 4F 3D      [13]  167         LD      (0x3d4f),A
   5543 3E 98         [ 7]  168         LD      A,0x98
   5545 32 55 3D      [13]  169         LD      (0x3d55),A
   5548 32 98 3F      [13]  170         LD      (0x3f98),A
   554B 3E 97         [ 7]  171         LD      A,0x97
   554D 32 90 3D      [13]  172         LD      (0x3d90),A
   5550 3E A4         [ 7]  173         LD      A,0xa4
   5552 32 AF 3D      [13]  174         LD      (0x3daf),A
   5555 32 F0 3D      [13]  175         LD      (0x3df0),A
   5558 32 2E 3E      [13]  176         LD      (0x3e2e),A
   555B 3E 94         [ 7]  177         LD      A,0x94
   555D 32 31 3E      [13]  178         LD      (0x3e31),A
   5560 32 6F 3E      [13]  179         LD      (0x3e6f),A
   5563 32 72 3E      [13]  180         LD      (0x3e72),A
   5566 32 D4 3E      [13]  181         LD      (0x3ed4),A
   5569 3E 8E         [ 7]  182         LD      A,0x8e
   556B 32 AF 3E      [13]  183         LD      (0x3eaf),A
   556E 3E 9B         [ 7]  184         LD      A,0x9b
   5570 32 B2 3E      [13]  185         LD      (0x3eb2),A
   5573 3E 8F         [ 7]  186         LD      A,0x8f
   5575 32 31 3F      [13]  187         LD      (0x3f31),A
   5578 C9            [10]  188         RET
                            189 
   5579                     190 LFRAME:
   5579 3E 4C         [ 7]  191         LD      A,0x4c
   557B 32 00 3C      [13]  192         LD      (0x3c00),A
   557E 3E B0         [ 7]  193         LD      A,0xb0
   5580 32 5F 3C      [13]  194         LD      (0x3c5f),A
   5583 32 93 3C      [13]  195         LD      (0x3c93),A
   5586 32 21 3D      [13]  196         LD      (0x3d21),A
   5589 32 55 3D      [13]  197         LD      (0x3d55),A
   558C 32 56 3D      [13]  198         LD      (0x3d56),A
   558F 32 A8 3E      [13]  199         LD      (0x3ea8),A
   5592 32 A9 3E      [13]  200         LD      (0x3ea9),A
   5595 32 DD 3E      [13]  201         LD      (0x3edd),A
   5598 32 DE 3E      [13]  202         LD      (0x3ede),A
   559B 32 14 3F      [13]  203         LD      (0x3f14),A
   559E 32 30 3F      [13]  204         LD      (0x3f30),A
   55A1 32 55 3F      [13]  205         LD      (0x3f55),A
   55A4 32 64 3F      [13]  206         LD      (0x3f64),A
   55A7 32 98 3F      [13]  207         LD      (0x3f98),A
   55AA 3E 8C         [ 7]  208         LD      A,0x8c
   55AC 32 63 3C      [13]  209         LD      (0x3c63),A
   55AF 32 97 3C      [13]  210         LD      (0x3c97),A
   55B2 32 CE 3C      [13]  211         LD      (0x3cce),A
   55B5 32 24 3D      [13]  212         LD      (0x3d24),A
   55B8 32 25 3D      [13]  213         LD      (0x3d25),A
   55BB 32 59 3D      [13]  214         LD      (0x3d59),A
   55BE 32 AB 3E      [13]  215         LD      (0x3eab),A
   55C1 32 AC 3E      [13]  216         LD      (0x3eac),A
   55C4 32 E0 3E      [13]  217         LD      (0x3ee0),A
   55C7 32 E1 3E      [13]  218         LD      (0x3ee1),A
   55CA 32 31 3F      [13]  219         LD      (0x3f31),A
   55CD 32 68 3F      [13]  220         LD      (0x3f68),A
   55D0 32 9C 3F      [13]  221         LD      (0x3f9c),A
   55D3 3E 83         [ 7]  222         LD      A,0x83
   55D5 32 67 3C      [13]  223         LD      (0x3c67),A
   55D8 32 9B 3C      [13]  224         LD      (0x3c9b),A
   55DB 32 CF 3C      [13]  225         LD      (0x3ccf),A
   55DE 32 28 3D      [13]  226         LD      (0x3d28),A
   55E1 32 29 3D      [13]  227         LD      (0x3d29),A
   55E4 32 5D 3D      [13]  228         LD      (0x3d5d),A
   55E7 32 92 3D      [13]  229         LD      (0x3d92),A
   55EA 32 AF 3E      [13]  230         LD      (0x3eaf),A
   55ED 32 B0 3E      [13]  231         LD      (0x3eb0),A
   55F0 32 E4 3E      [13]  232         LD      (0x3ee4),A
   55F3 32 E5 3E      [13]  233         LD      (0x3ee5),A
   55F6 32 19 3F      [13]  234         LD      (0x3f19),A
   55F9 32 1A 3F      [13]  235         LD      (0x3f1a),A
   55FC 32 6C 3F      [13]  236         LD      (0x3f6c),A
   55FF 32 A0 3F      [13]  237         LD      (0x3fa0),A
   5602 3E A9         [ 7]  238         LD      A,0xa9
   5604 32 69 3C      [13]  239         LD      (0x3c69),A
   5607 32 CF 3D      [13]  240         LD      (0x3dcf),A
   560A 32 EE 3D      [13]  241         LD      (0x3dee),A
   560D 32 91 3E      [13]  242         LD      (0x3e91),A
   5610 32 94 3E      [13]  243         LD      (0x3e94),A
   5613 3E 20         [ 7]  244         LD      A,0x20
   5615 32 6A 3C      [13]  245         LD      (0x3c6a),A
   5618 32 9F 3C      [13]  246         LD      (0x3c9f),A
   561B 32 AB 3C      [13]  247         LD      (0x3cab),A
   561E 32 D3 3C      [13]  248         LD      (0x3cd3),A
   5621 32 E8 3C      [13]  249         LD      (0x3ce8),A
   5624 32 E9 3C      [13]  250         LD      (0x3ce9),A
   5627 32 EC 3C      [13]  251         LD      (0x3cec),A
   562A 32 1D 3D      [13]  252         LD      (0x3d1d),A
   562D 32 2A 3D      [13]  253         LD      (0x3d2a),A
   5630 32 2D 3D      [13]  254         LD      (0x3d2d),A
   5633 32 51 3D      [13]  255         LD      (0x3d51),A
   5636 32 52 3D      [13]  256         LD      (0x3d52),A
   5639 32 6B 3D      [13]  257         LD      (0x3d6b),A
   563C 32 6E 3D      [13]  258         LD      (0x3d6e),A
   563F 32 90 3D      [13]  259         LD      (0x3d90),A
   5642 32 AC 3D      [13]  260         LD      (0x3dac),A
   5645 32 AF 3D      [13]  261         LD      (0x3daf),A
   5648 32 D0 3D      [13]  262         LD      (0x3dd0),A
   564B 32 D1 3D      [13]  263         LD      (0x3dd1),A
   564E 32 ED 3D      [13]  264         LD      (0x3ded),A
   5651 32 EF 3D      [13]  265         LD      (0x3def),A
   5654 32 F0 3D      [13]  266         LD      (0x3df0),A
   5657 32 11 3E      [13]  267         LD      (0x3e11),A
   565A 32 2D 3E      [13]  268         LD      (0x3e2d),A
   565D 32 2E 3E      [13]  269         LD      (0x3e2e),A
   5660 32 30 3E      [13]  270         LD      (0x3e30),A
   5663 32 31 3E      [13]  271         LD      (0x3e31),A
   5666 32 52 3E      [13]  272         LD      (0x3e52),A
   5669 32 6E 3E      [13]  273         LD      (0x3e6e),A
   566C 32 71 3E      [13]  274         LD      (0x3e71),A
   566F 32 72 3E      [13]  275         LD      (0x3e72),A
   5672 32 92 3E      [13]  276         LD      (0x3e92),A
   5675 32 93 3E      [13]  277         LD      (0x3e93),A
   5678 32 B2 3E      [13]  278         LD      (0x3eb2),A
   567B 32 D3 3E      [13]  279         LD      (0x3ed3),A
   567E 32 D4 3E      [13]  280         LD      (0x3ed4),A
   5681 32 E8 3E      [13]  281         LD      (0x3ee8),A
   5684 32 E9 3E      [13]  282         LD      (0x3ee9),A
   5687 32 F0 3E      [13]  283         LD      (0x3ef0),A
   568A 32 1D 3F      [13]  284         LD      (0x3f1d),A
   568D 32 1E 3F      [13]  285         LD      (0x3f1e),A
   5690 32 2C 3F      [13]  286         LD      (0x3f2c),A
   5693 32 60 3F      [13]  287         LD      (0x3f60),A
   5696 3E AD         [ 7]  288         LD      A,0xad
   5698 32 AA 3C      [13]  289         LD      (0x3caa),A
   569B 32 2F 3E      [13]  290         LD      (0x3e2f),A
   569E 32 97 3F      [13]  291         LD      (0x3f97),A
   56A1 3E A8         [ 7]  292         LD      A,0xa8
   56A3 32 CC 3C      [13]  293         LD      (0x3ccc),A
   56A6 3E 9C         [ 7]  294         LD      A,0x9c
   56A8 32 CD 3C      [13]  295         LD      (0x3ccd),A
   56AB 32 16 3F      [13]  296         LD      (0x3f16),A
   56AE 3E B2         [ 7]  297         LD      A,0xb2
   56B0 32 EA 3C      [13]  298         LD      (0x3cea),A
   56B3 3E B5         [ 7]  299         LD      A,0xb5
   56B5 32 EB 3C      [13]  300         LD      (0x3ceb),A
   56B8 32 2C 3D      [13]  301         LD      (0x3d2c),A
   56BB 32 70 3E      [13]  302         LD      (0x3e70),A
   56BE 3E A7         [ 7]  303         LD      A,0xa7
   56C0 32 0D 3D      [13]  304         LD      (0x3d0d),A
   56C3 3E A4         [ 7]  305         LD      A,0xa4
   56C5 32 0E 3D      [13]  306         LD      (0x3d0e),A
   56C8 32 50 3D      [13]  307         LD      (0x3d50),A
   56CB 3E 90         [ 7]  308         LD      A,0x90
   56CD 32 0F 3D      [13]  309         LD      (0x3d0f),A
   56D0 32 8F 3D      [13]  310         LD      (0x3d8f),A
   56D3 32 AE 3D      [13]  311         LD      (0x3dae),A
   56D6 32 51 3E      [13]  312         LD      (0x3e51),A
   56D9 32 54 3E      [13]  313         LD      (0x3e54),A
   56DC 32 F2 3E      [13]  314         LD      (0x3ef2),A
   56DF 32 57 3F      [13]  315         LD      (0x3f57),A
   56E2 3E A0         [ 7]  316         LD      A,0xa0
   56E4 32 1E 3D      [13]  317         LD      (0x3d1e),A
   56E7 32 A7 3E      [13]  318         LD      (0x3ea7),A
   56EA 32 DC 3E      [13]  319         LD      (0x3edc),A
   56ED 32 61 3F      [13]  320         LD      (0x3f61),A
   56F0 3E 98         [ 7]  321         LD      A,0x98
   56F2 32 22 3D      [13]  322         LD      (0x3d22),A
   56F5 32 99 3F      [13]  323         LD      (0x3f99),A
   56F8 3E 82         [ 7]  324         LD      A,0x82
   56FA 32 2B 3D      [13]  325         LD      (0x3d2b),A
   56FD 32 4D 3D      [13]  326         LD      (0x3d4d),A
   5700 32 4F 3D      [13]  327         LD      (0x3d4f),A
   5703 32 0F 3E      [13]  328         LD      (0x3e0f),A
   5706 32 12 3E      [13]  329         LD      (0x3e12),A
   5709 32 6F 3E      [13]  330         LD      (0x3e6f),A
   570C 32 12 3F      [13]  331         LD      (0x3f12),A
   570F 32 53 3F      [13]  332         LD      (0x3f53),A
   5712 3E 94         [ 7]  333         LD      A,0x94
   5714 32 4E 3D      [13]  334         LD      (0x3d4e),A
   5717 32 6D 3D      [13]  335         LD      (0x3d6d),A
   571A 32 10 3E      [13]  336         LD      (0x3e10),A
   571D 32 13 3E      [13]  337         LD      (0x3e13),A
   5720 32 B1 3E      [13]  338         LD      (0x3eb1),A
   5723 3E 86         [ 7]  339         LD      A,0x86
   5725 32 5A 3D      [13]  340         LD      (0x3d5a),A
   5728 32 9D 3F      [13]  341         LD      (0x3f9d),A
   572B 3E 81         [ 7]  342         LD      A,0x81
   572D 32 5E 3D      [13]  343         LD      (0x3d5e),A
   5730 32 E7 3E      [13]  344         LD      (0x3ee7),A
   5733 32 1C 3F      [13]  345         LD      (0x3f1c),A
   5736 32 A1 3F      [13]  346         LD      (0x3fa1),A
   5739 3E 8A         [ 7]  347         LD      A,0x8a
   573B 32 6C 3D      [13]  348         LD      (0x3d6c),A
   573E 32 8E 3D      [13]  349         LD      (0x3d8e),A
   5741 32 50 3E      [13]  350         LD      (0x3e50),A
   5744 32 53 3E      [13]  351         LD      (0x3e53),A
   5747 32 F1 3E      [13]  352         LD      (0x3ef1),A
   574A 32 56 3F      [13]  353         LD      (0x3f56),A
   574D 3E AB         [ 7]  354         LD      A,0xab
   574F 32 91 3D      [13]  355         LD      (0x3d91),A
   5752 32 AD 3D      [13]  356         LD      (0x3dad),A
   5755 3E A5         [ 7]  357         LD      A,0xa5
   5757 32 D2 3D      [13]  358         LD      (0x3dd2),A
   575A 32 D2 3E      [13]  359         LD      (0x3ed2),A
   575D 32 D5 3E      [13]  360         LD      (0x3ed5),A
   5760 3E B4         [ 7]  361         LD      A,0xb4
   5762 32 13 3F      [13]  362         LD      (0x3f13),A
   5765 3E 8E         [ 7]  363         LD      A,0x8e
   5767 32 15 3F      [13]  364         LD      (0x3f15),A
   576A 3E 8D         [ 7]  365         LD      A,0x8d
   576C 32 32 3F      [13]  366         LD      (0x3f32),A
   576F 3E 89         [ 7]  367         LD      A,0x89
   5771 32 54 3F      [13]  368         LD      (0x3f54),A
   5774 32 96 3F      [13]  369         LD      (0x3f96),A
   5777 C9            [10]  370         RET
                            371 
   5778                     372 RFRAME:
   5778 3E 52         [ 7]  373         LD      A,0x52
   577A 32 00 3C      [13]  374         LD      (0x3c00),A
   577D 3E 20         [ 7]  375         LD      A,0x20
   577F 32 5F 3C      [13]  376         LD      (0x3c5f),A
   5782 32 93 3C      [13]  377         LD      (0x3c93),A
   5785 32 CC 3C      [13]  378         LD      (0x3ccc),A
   5788 32 EB 3C      [13]  379         LD      (0x3ceb),A
   578B 32 0D 3D      [13]  380         LD      (0x3d0d),A
   578E 32 0F 3D      [13]  381         LD      (0x3d0f),A
   5791 32 29 3D      [13]  382         LD      (0x3d29),A
   5794 32 2C 3D      [13]  383         LD      (0x3d2c),A
   5797 32 4D 3D      [13]  384         LD      (0x3d4d),A
   579A 32 50 3D      [13]  385         LD      (0x3d50),A
   579D 32 5D 3D      [13]  386         LD      (0x3d5d),A
   57A0 32 5E 3D      [13]  387         LD      (0x3d5e),A
   57A3 32 6C 3D      [13]  388         LD      (0x3d6c),A
   57A6 32 6D 3D      [13]  389         LD      (0x3d6d),A
   57A9 32 8E 3D      [13]  390         LD      (0x3d8e),A
   57AC 32 92 3D      [13]  391         LD      (0x3d92),A
   57AF 32 AD 3D      [13]  392         LD      (0x3dad),A
   57B2 32 CF 3D      [13]  393         LD      (0x3dcf),A
   57B5 32 D2 3D      [13]  394         LD      (0x3dd2),A
   57B8 32 EE 3D      [13]  395         LD      (0x3dee),A
   57BB 32 0F 3E      [13]  396         LD      (0x3e0f),A
   57BE 32 10 3E      [13]  397         LD      (0x3e10),A
   57C1 32 13 3E      [13]  398         LD      (0x3e13),A
   57C4 32 2F 3E      [13]  399         LD      (0x3e2f),A
   57C7 32 50 3E      [13]  400         LD      (0x3e50),A
   57CA 32 51 3E      [13]  401         LD      (0x3e51),A
   57CD 32 53 3E      [13]  402         LD      (0x3e53),A
   57D0 32 54 3E      [13]  403         LD      (0x3e54),A
   57D3 32 70 3E      [13]  404         LD      (0x3e70),A
   57D6 32 91 3E      [13]  405         LD      (0x3e91),A
   57D9 32 94 3E      [13]  406         LD      (0x3e94),A
   57DC 32 A7 3E      [13]  407         LD      (0x3ea7),A
   57DF 32 A8 3E      [13]  408         LD      (0x3ea8),A
   57E2 32 D2 3E      [13]  409         LD      (0x3ed2),A
   57E5 32 D5 3E      [13]  410         LD      (0x3ed5),A
   57E8 32 DC 3E      [13]  411         LD      (0x3edc),A
   57EB 32 DD 3E      [13]  412         LD      (0x3edd),A
   57EE 32 12 3F      [13]  413         LD      (0x3f12),A
   57F1 32 13 3F      [13]  414         LD      (0x3f13),A
   57F4 32 32 3F      [13]  415         LD      (0x3f32),A
   57F7 32 53 3F      [13]  416         LD      (0x3f53),A
   57FA 32 54 3F      [13]  417         LD      (0x3f54),A
   57FD 32 56 3F      [13]  418         LD      (0x3f56),A
   5800 32 57 3F      [13]  419         LD      (0x3f57),A
   5803 32 6C 3F      [13]  420         LD      (0x3f6c),A
   5806 32 A1 3F      [13]  421         LD      (0x3fa1),A
   5809 3E B0         [ 7]  422         LD      A,0xb0
   580B 32 63 3C      [13]  423         LD      (0x3c63),A
   580E 32 97 3C      [13]  424         LD      (0x3c97),A
   5811 32 E9 3C      [13]  425         LD      (0x3ce9),A
   5814 32 1D 3D      [13]  426         LD      (0x3d1d),A
   5817 32 1E 3D      [13]  427         LD      (0x3d1e),A
   581A 32 52 3D      [13]  428         LD      (0x3d52),A
   581D 32 AB 3E      [13]  429         LD      (0x3eab),A
   5820 32 AC 3E      [13]  430         LD      (0x3eac),A
   5823 32 E0 3E      [13]  431         LD      (0x3ee0),A
   5826 32 E1 3E      [13]  432         LD      (0x3ee1),A
   5829 32 15 3F      [13]  433         LD      (0x3f15),A
   582C 32 16 3F      [13]  434         LD      (0x3f16),A
   582F 32 2C 3F      [13]  435         LD      (0x3f2c),A
   5832 32 61 3F      [13]  436         LD      (0x3f61),A
   5835 32 97 3F      [13]  437         LD      (0x3f97),A
   5838 3E 8C         [ 7]  438         LD      A,0x8c
   583A 32 67 3C      [13]  439         LD      (0x3c67),A
   583D 32 9B 3C      [13]  440         LD      (0x3c9b),A
   5840 32 CF 3C      [13]  441         LD      (0x3ccf),A
   5843 32 21 3D      [13]  442         LD      (0x3d21),A
   5846 32 22 3D      [13]  443         LD      (0x3d22),A
   5849 32 56 3D      [13]  444         LD      (0x3d56),A
   584C 32 E4 3E      [13]  445         LD      (0x3ee4),A
   584F 32 E5 3E      [13]  446         LD      (0x3ee5),A
   5852 32 19 3F      [13]  447         LD      (0x3f19),A
   5855 32 1A 3F      [13]  448         LD      (0x3f1a),A
   5858 32 30 3F      [13]  449         LD      (0x3f30),A
   585B 32 64 3F      [13]  450         LD      (0x3f64),A
   585E 32 99 3F      [13]  451         LD      (0x3f99),A
   5861 3E 83         [ 7]  452         LD      A,0x83
   5863 32 69 3C      [13]  453         LD      (0x3c69),A
   5866 32 9F 3C      [13]  454         LD      (0x3c9f),A
   5869 32 D3 3C      [13]  455         LD      (0x3cd3),A
   586C 32 25 3D      [13]  456         LD      (0x3d25),A
   586F 32 59 3D      [13]  457         LD      (0x3d59),A
   5872 32 5A 3D      [13]  458         LD      (0x3d5a),A
   5875 32 B1 3E      [13]  459         LD      (0x3eb1),A
   5878 32 E7 3E      [13]  460         LD      (0x3ee7),A
   587B 32 E8 3E      [13]  461         LD      (0x3ee8),A
   587E 32 1C 3F      [13]  462         LD      (0x3f1c),A
   5881 32 1D 3F      [13]  463         LD      (0x3f1d),A
   5884 32 68 3F      [13]  464         LD      (0x3f68),A
   5887 32 9D 3F      [13]  465         LD      (0x3f9d),A
   588A 3E BD         [ 7]  466         LD      A,0xbd
   588C 32 6A 3C      [13]  467         LD      (0x3c6a),A
   588F 3E 95         [ 7]  468         LD      A,0x95
   5891 32 AA 3C      [13]  469         LD      (0x3caa),A
   5894 32 EA 3C      [13]  470         LD      (0x3cea),A
   5897 32 F2 3E      [13]  471         LD      (0x3ef2),A
   589A 3E A9         [ 7]  472         LD      A,0xa9
   589C 32 AB 3C      [13]  473         LD      (0x3cab),A
   589F 32 6B 3D      [13]  474         LD      (0x3d6b),A
   58A2 32 AC 3D      [13]  475         LD      (0x3dac),A
   58A5 32 11 3E      [13]  476         LD      (0x3e11),A
   58A8 32 55 3F      [13]  477         LD      (0x3f55),A
   58AB 3E A8         [ 7]  478         LD      A,0xa8
   58AD 32 CD 3C      [13]  479         LD      (0x3ccd),A
   58B0 3E 9C         [ 7]  480         LD      A,0x9c
   58B2 32 CE 3C      [13]  481         LD      (0x3cce),A
   58B5 32 B0 3E      [13]  482         LD      (0x3eb0),A
   58B8 3E A0         [ 7]  483         LD      A,0xa0
   58BA 32 E8 3C      [13]  484         LD      (0x3ce8),A
   58BD 32 51 3D      [13]  485         LD      (0x3d51),A
   58C0 32 A9 3E      [13]  486         LD      (0x3ea9),A
   58C3 32 DE 3E      [13]  487         LD      (0x3ede),A
   58C6 32 60 3F      [13]  488         LD      (0x3f60),A
   58C9 3E A5         [ 7]  489         LD      A,0xa5
   58CB 32 EC 3C      [13]  490         LD      (0x3cec),A
   58CE 32 2D 3D      [13]  491         LD      (0x3d2d),A
   58D1 32 6E 3D      [13]  492         LD      (0x3d6e),A
   58D4 32 ED 3D      [13]  493         LD      (0x3ded),A
   58D7 32 93 3E      [13]  494         LD      (0x3e93),A
   58DA 32 96 3F      [13]  495         LD      (0x3f96),A
   58DD 3E AD         [ 7]  496         LD      A,0xad
   58DF 32 0E 3D      [13]  497         LD      (0x3d0e),A
   58E2 32 52 3E      [13]  498         LD      (0x3e52),A
   58E5 3E 86         [ 7]  499         LD      A,0x86
   58E7 32 24 3D      [13]  500         LD      (0x3d24),A
   58EA 32 9C 3F      [13]  501         LD      (0x3f9c),A
   58ED 3E 81         [ 7]  502         LD      A,0x81
   58EF 32 28 3D      [13]  503         LD      (0x3d28),A
   58F2 32 91 3D      [13]  504         LD      (0x3d91),A
   58F5 32 E9 3E      [13]  505         LD      (0x3ee9),A
   58F8 32 1E 3F      [13]  506         LD      (0x3f1e),A
   58FB 32 A0 3F      [13]  507         LD      (0x3fa0),A
   58FE 3E 8A         [ 7]  508         LD      A,0x8a
   5900 32 2A 3D      [13]  509         LD      (0x3d2a),A
   5903 32 D0 3D      [13]  510         LD      (0x3dd0),A
   5906 32 F0 3E      [13]  511         LD      (0x3ef0),A
   5909 32 14 3F      [13]  512         LD      (0x3f14),A
   590C 3E 90         [ 7]  513         LD      A,0x90
   590E 32 2B 3D      [13]  514         LD      (0x3d2b),A
   5911 32 D1 3D      [13]  515         LD      (0x3dd1),A
   5914 32 12 3E      [13]  516         LD      (0x3e12),A
   5917 32 F1 3E      [13]  517         LD      (0x3ef1),A
   591A 3E 82         [ 7]  518         LD      A,0x82
   591C 32 4E 3D      [13]  519         LD      (0x3d4e),A
   591F 32 8F 3D      [13]  520         LD      (0x3d8f),A
   5922 32 AE 3D      [13]  521         LD      (0x3dae),A
   5925 32 EF 3D      [13]  522         LD      (0x3def),A
   5928 32 2D 3E      [13]  523         LD      (0x3e2d),A
   592B 32 30 3E      [13]  524         LD      (0x3e30),A
   592E 32 6E 3E      [13]  525         LD      (0x3e6e),A
   5931 32 71 3E      [13]  526         LD      (0x3e71),A
   5934 32 92 3E      [13]  527         LD      (0x3e92),A
   5937 32 D3 3E      [13]  528         LD      (0x3ed3),A
   593A 3E B5         [ 7]  529         LD      A,0xb5
   593C 32 4F 3D      [13]  530         LD      (0x3d4f),A
   593F 3E 98         [ 7]  531         LD      A,0x98
   5941 32 55 3D      [13]  532         LD      (0x3d55),A
   5944 32 98 3F      [13]  533         LD      (0x3f98),A
   5947 3E 97         [ 7]  534         LD      A,0x97
   5949 32 90 3D      [13]  535         LD      (0x3d90),A
   594C 3E A4         [ 7]  536         LD      A,0xa4
   594E 32 AF 3D      [13]  537         LD      (0x3daf),A
   5951 32 F0 3D      [13]  538         LD      (0x3df0),A
   5954 32 2E 3E      [13]  539         LD      (0x3e2e),A
   5957 3E 94         [ 7]  540         LD      A,0x94
   5959 32 31 3E      [13]  541         LD      (0x3e31),A
   595C 32 6F 3E      [13]  542         LD      (0x3e6f),A
   595F 32 72 3E      [13]  543         LD      (0x3e72),A
   5962 32 D4 3E      [13]  544         LD      (0x3ed4),A
   5965 3E 8E         [ 7]  545         LD      A,0x8e
   5967 32 AF 3E      [13]  546         LD      (0x3eaf),A
   596A 3E 9B         [ 7]  547         LD      A,0x9b
   596C 32 B2 3E      [13]  548         LD      (0x3eb2),A
   596F 3E 8F         [ 7]  549         LD      A,0x8f
   5971 32 31 3F      [13]  550         LD      (0x3f31),A
   5974 C9            [10]  551         RET
                            552 
                              4     .end
                              5     
